target datalayout = "e-m:e-p270:32:32-p271:32:32-p272:64:64-i64:64-i128:128-f80:128-n8:16:32:64-S128"
target triple = "x86_64-pc-linux-gnu"

%struct.FFInputFormat = type { %struct.AVInputFormat, i32, i32, i32, ptr, ptr, ptr, ptr, ptr, ptr, ptr, ptr, ptr, ptr }
%struct.AVInputFormat = type { ptr, ptr, i32, ptr, ptr, ptr, ptr }
%struct.PayloadContext = type { ptr, i32, ptr, ptr, i32, [8256 x i8], i32 }

@.str.8 = private unnamed_addr constant [1 x i8] zeroinitializer, align 1
@ff_rdt_demuxer = external constant %struct.FFInputFormat, align 8

; Function Attrs: cold nounwind optsize uwtable
define internal i32 @rdt_init(ptr noundef %0, i32 noundef %1, ptr noundef %2) #8 {
  %4 = alloca i32, align 4
  %5 = alloca ptr, align 8
  %6 = alloca i32, align 4
  %7 = alloca ptr, align 8
  %8 = alloca i32, align 4
  %9 = alloca i32, align 4
  store ptr %0, ptr %5, align 8, !tbaa !4
  store i32 %1, ptr %6, align 4, !tbaa !9
  store ptr %2, ptr %7, align 8, !tbaa !76
  call void @llvm.lifetime.start.p0(i64 4, ptr %8) #12
  %10 = call ptr @avformat_alloc_context()
  %11 = load ptr, ptr %7, align 8, !tbaa !76
  %12 = getelementptr inbounds nuw %struct.PayloadContext, ptr %11, i32 0, i32 0
  store ptr %10, ptr %12, align 8, !tbaa !78
  %13 = load ptr, ptr %7, align 8, !tbaa !76
  %14 = getelementptr inbounds nuw %struct.PayloadContext, ptr %13, i32 0, i32 0
  %15 = load ptr, ptr %14, align 8, !tbaa !78
  %16 = icmp ne ptr %15, null
  br i1 %16, label %18, label %17

17:                                               ; preds = %3
  store i32 -12, ptr %4, align 4
  store i32 1, ptr %9, align 4
  br label %31

18:                                               ; preds = %3
  %19 = load ptr, ptr %7, align 8, !tbaa !76
  %20 = getelementptr inbounds nuw %struct.PayloadContext, ptr %19, i32 0, i32 0
  %21 = load ptr, ptr %20, align 8, !tbaa !78
  %22 = load ptr, ptr %5, align 8, !tbaa !4
  %23 = call i32 @ff_copy_whiteblacklists(ptr noundef %21, ptr noundef %22)
  store i32 %23, ptr %8, align 4, !tbaa !9
  %24 = icmp slt i32 %23, 0
  br i1 %24, label %25, label %27

25:                                               ; preds = %18
  %26 = load i32, ptr %8, align 4, !tbaa !9
  store i32 %26, ptr %4, align 4
  store i32 1, ptr %9, align 4
  br label %31

27:                                               ; preds = %18
  %28 = load ptr, ptr %7, align 8, !tbaa !76
  %29 = getelementptr inbounds nuw %struct.PayloadContext, ptr %28, i32 0, i32 0
  %30 = call i32 @avformat_open_input(ptr noundef %29, ptr noundef @.str.8, ptr noundef @ff_rdt_demuxer, ptr noundef null)
  store i32 %30, ptr %4, align 4
  store i32 1, ptr %9, align 4
  br label %31

31:                                               ; preds = %27, %25, %17
  call void @llvm.lifetime.end.p0(i64 4, ptr %8) #12
  %32 = load i32, ptr %4, align 4
  ret i32 %32
}