; Function Attrs: cold nounwind optsize uwtable
define internal i32 @rdt_init(ptr noundef %0, i32 %1, ptr noundef initializes((0, 8)) %2) #6 {
  %4 = tail call ptr @avformat_alloc_context() #11
  store ptr %4, ptr %2, align 8, !tbaa !71
  %.not = icmp eq ptr %4, null
  br i1 %.not, label %10, label %5

5:                                                ; preds = %3
  %6 = tail call i32 @ff_copy_whiteblacklists(ptr noundef nonnull %4, ptr noundef %0) #11
  %7 = icmp slt i32 %6, 0
  br i1 %7, label %10, label %8

8:                                                ; preds = %5
  %9 = tail call i32 @avformat_open_input(ptr noundef nonnull %2, ptr noundef nonnull @.str.8, ptr noundef nonnull @ff_rdt_demuxer, ptr noundef null) #11
  br label %10

10:                                               ; preds = %5, %3, %8
  %.0 = phi i32 [ %9, %8 ], [ -12, %3 ], [ %6, %5 ]
  ret i32 %.0
}